target datalayout = "e-m:e-p270:32:32-p271:32:32-p272:64:64-i64:64-i128:128-f80:128-n8:16:32:64-S128"
target triple = "x86_64-pc-linux-gnu"

%"class.rocksdb::PartitionedFilterBlockReader" = type { %"class.rocksdb::FilterBlockReaderCommon.base", %"class.std::unordered_map" }
%"class.rocksdb::FilterBlockReaderCommon.base" = type <{ %"class.rocksdb::FilterBlockReader", ptr, %"class.rocksdb::CachableEntry", i64, i8 }>
%"class.rocksdb::FilterBlockReader" = type { ptr }
%"class.rocksdb::CachableEntry" = type <{ ptr, ptr, ptr, i8, [7 x i8] }>
%"class.std::unordered_map" = type { %"class.std::_Hashtable" }
%"class.std::_Hashtable" = type { ptr, i64, %"struct.std::__detail::_Hash_node_base", i64, %"struct.std::__detail::_Prime_rehash_policy", ptr }
%"struct.std::__detail::_Hash_node_base" = type { ptr }
%"struct.std::__detail::_Prime_rehash_policy" = type { float, i64 }
%"class.rocksdb::FilterBlockReaderCommon" = type <{ %"class.rocksdb::FilterBlockReader", ptr, %"class.rocksdb::CachableEntry", i64, i8, [7 x i8] }>

; Function Attrs: mustprogress nounwind uwtable
define linkonce_odr void @_ZNSt15__new_allocatorINSt8__detail10_Hash_nodeISt4pairIKmN7rocksdb13CachableEntryINS4_21ParsedFullFilterBlockEEEELb0EEEEC2Ev(ptr noundef nonnull align 1 dereferenceable(1) %0) unnamed_addr #4 comdat align 2 {
  %2 = alloca ptr, align 8
  store ptr %0, ptr %2, align 8, !tbaa !748
  ret void
}

; Function Attrs: mustprogress nounwind uwtable
define linkonce_odr void @_ZNSaINSt8__detail10_Hash_nodeISt4pairIKmN7rocksdb13CachableEntryINS3_21ParsedFullFilterBlockEEEELb0EEEEC2Ev(ptr noundef nonnull align 1 dereferenceable(1) %0) unnamed_addr #4 comdat align 2 {
  %2 = alloca ptr, align 8
  store ptr %0, ptr %2, align 8, !tbaa !746
  %3 = load ptr, ptr %2, align 8
  call void @_ZNSt15__new_allocatorINSt8__detail10_Hash_nodeISt4pairIKmN7rocksdb13CachableEntryINS4_21ParsedFullFilterBlockEEEELb0EEEEC2Ev(ptr noundef nonnull align 1 dereferenceable(1) %3) #5
  ret void
}

; Function Attrs: mustprogress nounwind uwtable
define linkonce_odr void @_ZNSt8__detail21_Hashtable_ebo_helperILi1ESt4hashImELb1EEC2Ev(ptr noundef nonnull align 1 dereferenceable(1) %0) unnamed_addr #4 comdat align 2 {
  %2 = alloca ptr, align 8
  store ptr %0, ptr %2, align 8, !tbaa !742
  ret void
}

; Function Attrs: mustprogress nounwind uwtable
define linkonce_odr void @_ZNSt8__detail21_Hashtable_ebo_helperILi0ESaINS_10_Hash_nodeISt4pairIKmN7rocksdb13CachableEntryINS4_21ParsedFullFilterBlockEEEELb0EEEELb1EEC2Ev(ptr noundef nonnull align 1 dereferenceable(1) %0) unnamed_addr #4 comdat align 2 {
  %2 = alloca ptr, align 8
  store ptr %0, ptr %2, align 8, !tbaa !744
  %3 = load ptr, ptr %2, align 8
  call void @_ZNSaINSt8__detail10_Hash_nodeISt4pairIKmN7rocksdb13CachableEntryINS3_21ParsedFullFilterBlockEEEELb0EEEEC2Ev(ptr noundef nonnull align 1 dereferenceable(1) %3) #5
  ret void
}

; Function Attrs: mustprogress nounwind uwtable
define linkonce_odr void @_ZNSt8__detail21_Hashtable_ebo_helperILi0ESt8equal_toImELb1EEC2Ev(ptr noundef nonnull align 1 dereferenceable(1) %0) unnamed_addr #4 comdat align 2 {
  %2 = alloca ptr, align 8
  store ptr %0, ptr %2, align 8, !tbaa !740
  ret void
}

; Function Attrs: mustprogress nounwind uwtable
define linkonce_odr void @_ZNSt8__detail15_Hash_code_baseImSt4pairIKmN7rocksdb13CachableEntryINS3_21ParsedFullFilterBlockEEEENS_10_Select1stESt4hashImENS_18_Mod_range_hashingENS_20_Default_ranged_hashELb0EEC2Ev(ptr noundef nonnull align 1 dereferenceable(1) %0) unnamed_addr #4 comdat align 2 {
  %2 = alloca ptr, align 8
  store ptr %0, ptr %2, align 8, !tbaa !738
  %3 = load ptr, ptr %2, align 8
  call void @_ZNSt8__detail21_Hashtable_ebo_helperILi1ESt4hashImELb1EEC2Ev(ptr noundef nonnull align 1 dereferenceable(1) %3) #5
  ret void
}

; Function Attrs: mustprogress nounwind uwtable
define linkonce_odr void @_ZNSt8__detail20_Prime_rehash_policyC2Ef(ptr noundef nonnull align 8 dereferenceable(16) %0, float noundef %1) unnamed_addr #4 comdat align 2 {
  %3 = alloca ptr, align 8
  %4 = alloca float, align 4
  store ptr %0, ptr %3, align 8, !tbaa !733
  store float %1, ptr %4, align 4, !tbaa !735
  %5 = load ptr, ptr %3, align 8
  %6 = getelementptr inbounds nuw %"struct.std::__detail::_Prime_rehash_policy", ptr %5, i32 0, i32 0
  %7 = load float, ptr %4, align 4, !tbaa !735
  store float %7, ptr %6, align 8, !tbaa !736
  %8 = getelementptr inbounds nuw %"struct.std::__detail::_Prime_rehash_policy", ptr %5, i32 0, i32 1
  store i64 0, ptr %8, align 8, !tbaa !737
  ret void
}

; Function Attrs: mustprogress nounwind uwtable
define linkonce_odr void @_ZNSt8__detail15_Hash_node_baseC2Ev(ptr noundef nonnull align 8 dereferenceable(8) %0) unnamed_addr #4 comdat align 2 {
  %2 = alloca ptr, align 8
  store ptr %0, ptr %2, align 8, !tbaa !731
  %3 = load ptr, ptr %2, align 8
  %4 = getelementptr inbounds nuw %"struct.std::__detail::_Hash_node_base", ptr %3, i32 0, i32 0
  store ptr null, ptr %4, align 8, !tbaa !732
  ret void
}

; Function Attrs: mustprogress nounwind uwtable
define linkonce_odr void @_ZNSt8__detail16_Hashtable_allocISaINS_10_Hash_nodeISt4pairIKmN7rocksdb13CachableEntryINS4_21ParsedFullFilterBlockEEEELb0EEEEEC2Ev(ptr noundef nonnull align 1 dereferenceable(1) %0) unnamed_addr #4 comdat align 2 {
  %2 = alloca ptr, align 8
  store ptr %0, ptr %2, align 8, !tbaa !729
  %3 = load ptr, ptr %2, align 8
  call void @_ZNSt8__detail21_Hashtable_ebo_helperILi0ESaINS_10_Hash_nodeISt4pairIKmN7rocksdb13CachableEntryINS4_21ParsedFullFilterBlockEEEELb0EEEELb1EEC2Ev(ptr noundef nonnull align 1 dereferenceable(1) %3) #5
  ret void
}

; Function Attrs: mustprogress nounwind uwtable
define linkonce_odr void @_ZNSt8__detail15_Hashtable_baseImSt4pairIKmN7rocksdb13CachableEntryINS3_21ParsedFullFilterBlockEEEENS_10_Select1stESt8equal_toImESt4hashImENS_18_Mod_range_hashingENS_20_Default_ranged_hashENS_17_Hashtable_traitsILb0ELb0ELb1EEEEC2Ev(ptr noundef nonnull align 1 dereferenceable(1) %0) unnamed_addr #4 comdat align 2 {
  %2 = alloca ptr, align 8
  store ptr %0, ptr %2, align 8, !tbaa !727
  %3 = load ptr, ptr %2, align 8
  call void @_ZNSt8__detail15_Hash_code_baseImSt4pairIKmN7rocksdb13CachableEntryINS3_21ParsedFullFilterBlockEEEENS_10_Select1stESt4hashImENS_18_Mod_range_hashingENS_20_Default_ranged_hashELb0EEC2Ev(ptr noundef nonnull align 1 dereferenceable(1) %3) #5
  call void @_ZNSt8__detail21_Hashtable_ebo_helperILi0ESt8equal_toImELb1EEC2Ev(ptr noundef nonnull align 1 dereferenceable(1) %3) #5
  ret void
}

; Function Attrs: mustprogress nounwind uwtable
define linkonce_odr void @_ZN7rocksdb13CachableEntryINS_27Block_kFilterPartitionIndexEE11ResetFieldsEv(ptr noundef nonnull align 8 dereferenceable(25) %0) #4 comdat align 2 {
  %2 = alloca ptr, align 8
  store ptr %0, ptr %2, align 8, !tbaa !157
  %3 = load ptr, ptr %2, align 8
  %4 = getelementptr inbounds nuw %"class.rocksdb::CachableEntry", ptr %3, i32 0, i32 0
  store ptr null, ptr %4, align 8, !tbaa !178
  %5 = getelementptr inbounds nuw %"class.rocksdb::CachableEntry", ptr %3, i32 0, i32 1
  store ptr null, ptr %5, align 8, !tbaa !179
  %6 = getelementptr inbounds nuw %"class.rocksdb::CachableEntry", ptr %3, i32 0, i32 2
  store ptr null, ptr %6, align 8, !tbaa !180
  %7 = getelementptr inbounds nuw %"class.rocksdb::CachableEntry", ptr %3, i32 0, i32 3
  store i8 0, ptr %7, align 8, !tbaa !181
  ret void
}

; Function Attrs: mustprogress nounwind uwtable
define linkonce_odr void @_ZNSt10_HashtableImSt4pairIKmN7rocksdb13CachableEntryINS2_21ParsedFullFilterBlockEEEESaIS6_ENSt8__detail10_Select1stESt8equal_toImESt4hashImENS8_18_Mod_range_hashingENS8_20_Default_ranged_hashENS8_20_Prime_rehash_policyENS8_17_Hashtable_traitsILb0ELb0ELb1EEEEC2Ev(ptr noundef nonnull align 8 dereferenceable(56) %0) unnamed_addr #4 comdat align 2 {
  %2 = alloca ptr, align 8
  store ptr %0, ptr %2, align 8, !tbaa !715
  %3 = load ptr, ptr %2, align 8
  call void @_ZNSt8__detail15_Hashtable_baseImSt4pairIKmN7rocksdb13CachableEntryINS3_21ParsedFullFilterBlockEEEENS_10_Select1stESt8equal_toImESt4hashImENS_18_Mod_range_hashingENS_20_Default_ranged_hashENS_17_Hashtable_traitsILb0ELb0ELb1EEEEC2Ev(ptr noundef nonnull align 1 dereferenceable(1) %3) #5
  call void @_ZNSt8__detail16_Hashtable_allocISaINS_10_Hash_nodeISt4pairIKmN7rocksdb13CachableEntryINS4_21ParsedFullFilterBlockEEEELb0EEEEEC2Ev(ptr noundef nonnull align 1 dereferenceable(1) %3) #5
  %4 = getelementptr inbounds nuw %"class.std::_Hashtable", ptr %3, i32 0, i32 0
  %5 = getelementptr inbounds nuw %"class.std::_Hashtable", ptr %3, i32 0, i32 5
  store ptr %5, ptr %4, align 8, !tbaa !717
  %6 = getelementptr inbounds nuw %"class.std::_Hashtable", ptr %3, i32 0, i32 1
  store i64 1, ptr %6, align 8, !tbaa !724
  %7 = getelementptr inbounds nuw %"class.std::_Hashtable", ptr %3, i32 0, i32 2
  call void @_ZNSt8__detail15_Hash_node_baseC2Ev(ptr noundef nonnull align 8 dereferenceable(8) %7) #5
  %8 = getelementptr inbounds nuw %"class.std::_Hashtable", ptr %3, i32 0, i32 3
  store i64 0, ptr %8, align 8, !tbaa !725
  %9 = getelementptr inbounds nuw %"class.std::_Hashtable", ptr %3, i32 0, i32 4
  call void @_ZNSt8__detail20_Prime_rehash_policyC2Ef(ptr noundef nonnull align 8 dereferenceable(16) %9, float noundef 1.000000e+00) #5
  %10 = getelementptr inbounds nuw %"class.std::_Hashtable", ptr %3, i32 0, i32 5
  store ptr null, ptr %10, align 8, !tbaa !726
  ret void
}

; Function Attrs: mustprogress nounwind uwtable
define linkonce_odr void @_ZN7rocksdb17FilterBlockReaderD2Ev(ptr noundef nonnull align 8 dereferenceable(8) %0) unnamed_addr #4 comdat align 2 {
  %2 = alloca ptr, align 8
  store ptr %0, ptr %2, align 8, !tbaa !184
  ret void
}

; Function Attrs: mustprogress nounwind uwtable
define linkonce_odr void @_ZN7rocksdb13CachableEntryINS_27Block_kFilterPartitionIndexEEC2EOS2_(ptr noundef nonnull align 8 dereferenceable(25) %0, ptr noundef nonnull align 8 dereferenceable(25) %1) unnamed_addr #4 comdat align 2 {
  %3 = alloca ptr, align 8
  %4 = alloca ptr, align 8
  store ptr %0, ptr %3, align 8, !tbaa !157
  store ptr %1, ptr %4, align 8, !tbaa !157
  %5 = load ptr, ptr %3, align 8
  %6 = getelementptr inbounds nuw %"class.rocksdb::CachableEntry", ptr %5, i32 0, i32 0
  %7 = load ptr, ptr %4, align 8, !tbaa !157
  %8 = getelementptr inbounds nuw %"class.rocksdb::CachableEntry", ptr %7, i32 0, i32 0
  %9 = load ptr, ptr %8, align 8, !tbaa !178
  store ptr %9, ptr %6, align 8, !tbaa !178
  %10 = getelementptr inbounds nuw %"class.rocksdb::CachableEntry", ptr %5, i32 0, i32 1
  %11 = load ptr, ptr %4, align 8, !tbaa !157
  %12 = getelementptr inbounds nuw %"class.rocksdb::CachableEntry", ptr %11, i32 0, i32 1
  %13 = load ptr, ptr %12, align 8, !tbaa !179
  store ptr %13, ptr %10, align 8, !tbaa !179
  %14 = getelementptr inbounds nuw %"class.rocksdb::CachableEntry", ptr %5, i32 0, i32 2
  %15 = load ptr, ptr %4, align 8, !tbaa !157
  %16 = getelementptr inbounds nuw %"class.rocksdb::CachableEntry", ptr %15, i32 0, i32 2
  %17 = load ptr, ptr %16, align 8, !tbaa !180
  store ptr %17, ptr %14, align 8, !tbaa !180
  %18 = getelementptr inbounds nuw %"class.rocksdb::CachableEntry", ptr %5, i32 0, i32 3
  %19 = load ptr, ptr %4, align 8, !tbaa !157
  %20 = getelementptr inbounds nuw %"class.rocksdb::CachableEntry", ptr %19, i32 0, i32 3
  %21 = load i8, ptr %20, align 8, !tbaa !181, !range !35, !noundef !36
  %22 = trunc i8 %21 to i1
  %23 = zext i1 %22 to i8
  store i8 %23, ptr %18, align 8, !tbaa !181
  %24 = load ptr, ptr %4, align 8, !tbaa !157
  call void @_ZN7rocksdb13CachableEntryINS_27Block_kFilterPartitionIndexEE11ResetFieldsEv(ptr noundef nonnull align 8 dereferenceable(25) %24) #5
  ret void
}

; Function Attrs: mustprogress nounwind uwtable
define linkonce_odr void @_ZN7rocksdb17FilterBlockReaderC2Ev(ptr noundef nonnull align 8 dereferenceable(8) %0) unnamed_addr #4 comdat align 2 {
  %2 = alloca ptr, align 8
  store ptr %0, ptr %2, align 8, !tbaa !184
  %3 = load ptr, ptr %2, align 8
  store ptr getelementptr inbounds inrange(-16, 88) ({ [13 x ptr] }, ptr @_ZTVN7rocksdb17FilterBlockReaderE, i32 0, i32 0, i32 2), ptr %3, align 8, !tbaa !37
  ret void
}

; Function Attrs: mustprogress nounwind uwtable
define linkonce_odr void @_ZNSt13unordered_mapImN7rocksdb13CachableEntryINS0_21ParsedFullFilterBlockEEESt4hashImESt8equal_toImESaISt4pairIKmS3_EEEC2Ev(ptr noundef nonnull align 8 dereferenceable(56) %0) unnamed_addr #4 comdat align 2 {
  %2 = alloca ptr, align 8
  store ptr %0, ptr %2, align 8, !tbaa !170
  %3 = load ptr, ptr %2, align 8
  %4 = getelementptr inbounds nuw %"class.std::unordered_map", ptr %3, i32 0, i32 0
  call void @_ZNSt10_HashtableImSt4pairIKmN7rocksdb13CachableEntryINS2_21ParsedFullFilterBlockEEEESaIS6_ENSt8__detail10_Select1stESt8equal_toImESt4hashImENS8_18_Mod_range_hashingENS8_20_Default_ranged_hashENS8_20_Prime_rehash_policyENS8_17_Hashtable_traitsILb0ELb0ELb1EEEEC2Ev(ptr noundef nonnull align 8 dereferenceable(56) %4) #5
  ret void
}

; Function Attrs: mustprogress uwtable
define linkonce_odr void @_ZN7rocksdb23FilterBlockReaderCommonINS_27Block_kFilterPartitionIndexEEC2EPKNS_15BlockBasedTableEONS_13CachableEntryIS1_EE(ptr noundef nonnull align 8 dereferenceable(57) %0, ptr noundef %1, ptr noundef nonnull align 8 dereferenceable(25) %2) unnamed_addr #6 comdat align 2 personality ptr @__gxx_personality_v0 {
  %4 = alloca ptr, align 8
  %5 = alloca ptr, align 8
  %6 = alloca ptr, align 8
  %7 = alloca ptr, align 8
  %8 = alloca ptr, align 8
  %9 = alloca i32, align 4
  store ptr %0, ptr %4, align 8, !tbaa !159
  store ptr %1, ptr %5, align 8, !tbaa !155
  store ptr %2, ptr %6, align 8, !tbaa !157
  %10 = load ptr, ptr %4, align 8
  call void @_ZN7rocksdb17FilterBlockReaderC2Ev(ptr noundef nonnull align 8 dereferenceable(8) %10) #5
  store ptr getelementptr inbounds inrange(-16, 88) ({ [13 x ptr] }, ptr @_ZTVN7rocksdb23FilterBlockReaderCommonINS_27Block_kFilterPartitionIndexEEE, i32 0, i32 0, i32 2), ptr %10, align 8, !tbaa !37
  %11 = getelementptr inbounds nuw %"class.rocksdb::FilterBlockReaderCommon", ptr %10, i32 0, i32 1
  %12 = load ptr, ptr %5, align 8, !tbaa !155
  store ptr %12, ptr %11, align 8, !tbaa !161
  %13 = getelementptr inbounds nuw %"class.rocksdb::FilterBlockReaderCommon", ptr %10, i32 0, i32 2
  %14 = load ptr, ptr %6, align 8, !tbaa !157
  call void @_ZN7rocksdb13CachableEntryINS_27Block_kFilterPartitionIndexEEC2EOS2_(ptr noundef nonnull align 8 dereferenceable(25) %13, ptr noundef nonnull align 8 dereferenceable(25) %14) #5
  %15 = getelementptr inbounds nuw %"class.rocksdb::FilterBlockReaderCommon", ptr %10, i32 0, i32 3
  store i64 0, ptr %15, align 8, !tbaa !168
  %16 = getelementptr inbounds nuw %"class.rocksdb::FilterBlockReaderCommon", ptr %10, i32 0, i32 4
  store i8 0, ptr %16, align 8, !tbaa !169
  call void @llvm.lifetime.start.p0(i64 8, ptr %7) #5
  %17 = invoke noundef ptr @_ZNK7rocksdb23FilterBlockReaderCommonINS_27Block_kFilterPartitionIndexEE22table_prefix_extractorEv(ptr noundef nonnull align 8 dereferenceable(57) %10)
          to label %18 unwind label %31

18:                                               ; preds = %3
  store ptr %17, ptr %7, align 8, !tbaa !25
  %19 = load ptr, ptr %7, align 8, !tbaa !25
  %20 = icmp ne ptr %19, null
  br i1 %20, label %21, label %35

21:                                               ; preds = %18
  %22 = load ptr, ptr %7, align 8, !tbaa !25
  %23 = getelementptr inbounds nuw %"class.rocksdb::FilterBlockReaderCommon", ptr %10, i32 0, i32 3
  %24 = load ptr, ptr %22, align 8, !tbaa !37
  %25 = getelementptr inbounds ptr, ptr %24, i64 22
  %26 = load ptr, ptr %25, align 8
  %27 = invoke noundef zeroext i1 %26(ptr noundef nonnull align 8 dereferenceable(32) %22, ptr noundef %23)
          to label %28 unwind label %31

28:                                               ; preds = %21
  %29 = getelementptr inbounds nuw %"class.rocksdb::FilterBlockReaderCommon", ptr %10, i32 0, i32 4
  %30 = zext i1 %27 to i8
  store i8 %30, ptr %29, align 8, !tbaa !169
  br label %35

31:                                               ; preds = %21, %3
  %32 = landingpad { ptr, i32 }
          cleanup
  %33 = extractvalue { ptr, i32 } %32, 0
  store ptr %33, ptr %8, align 8
  %34 = extractvalue { ptr, i32 } %32, 1
  store i32 %34, ptr %9, align 4
  call void @llvm.lifetime.end.p0(i64 8, ptr %7) #5
  call void @_ZN7rocksdb13CachableEntryINS_27Block_kFilterPartitionIndexEED2Ev(ptr noundef nonnull align 8 dereferenceable(25) %13) #5
  call void @_ZN7rocksdb17FilterBlockReaderD2Ev(ptr noundef nonnull align 8 dereferenceable(8) %10) #5
  br label %36

35:                                               ; preds = %28, %18
  call void @llvm.lifetime.end.p0(i64 8, ptr %7) #5
  ret void

36:                                               ; preds = %31
  %37 = load ptr, ptr %8, align 8
  %38 = load i32, ptr %9, align 4
  %39 = insertvalue { ptr, i32 } poison, ptr %37, 0
  %40 = insertvalue { ptr, i32 } %39, i32 %38, 1
  resume { ptr, i32 } %40
}

; Function Attrs: mustprogress uwtable
define void @_ZN7rocksdb28PartitionedFilterBlockReaderC2EPKNS_15BlockBasedTableEONS_13CachableEntryINS_27Block_kFilterPartitionIndexEEE(ptr noundef nonnull align 8 dereferenceable(120) %0, ptr noundef %1, ptr noundef nonnull align 8 dereferenceable(25) %2) unnamed_addr #6 align 2 {
  %4 = alloca ptr, align 8
  %5 = alloca ptr, align 8
  %6 = alloca ptr, align 8
  store ptr %0, ptr %4, align 8, !tbaa !153
  store ptr %1, ptr %5, align 8, !tbaa !155
  store ptr %2, ptr %6, align 8, !tbaa !157
  %7 = load ptr, ptr %4, align 8
  %8 = load ptr, ptr %5, align 8, !tbaa !155
  %9 = load ptr, ptr %6, align 8, !tbaa !157
  call void @_ZN7rocksdb23FilterBlockReaderCommonINS_27Block_kFilterPartitionIndexEEC2EPKNS_15BlockBasedTableEONS_13CachableEntryIS1_EE(ptr noundef nonnull align 8 dereferenceable(57) %7, ptr noundef %8, ptr noundef nonnull align 8 dereferenceable(25) %9)
  store ptr getelementptr inbounds inrange(-16, 88) ({ [13 x ptr] }, ptr @_ZTVN7rocksdb28PartitionedFilterBlockReaderE, i32 0, i32 0, i32 2), ptr %7, align 8, !tbaa !37
  %10 = getelementptr inbounds nuw %"class.rocksdb::PartitionedFilterBlockReader", ptr %7, i32 0, i32 1
  call void @_ZNSt13unordered_mapImN7rocksdb13CachableEntryINS0_21ParsedFullFilterBlockEEESt4hashImESt8equal_toImESaISt4pairIKmS3_EEEC2Ev(ptr noundef nonnull align 8 dereferenceable(56) %10) #5
  ret void
}